; Function Attrs: mustprogress uwtable
define dso_local noundef zeroext i1 @_ZN15cmStateSnapshot23HasDefinedPolicyCMP0011Ev(ptr noundef nonnull readonly align 8 captures(none) dereferenceable(24) %0) local_unnamed_addr #4 align 2 {
  %2 = getelementptr inbounds nuw i8, ptr %0, i64 8
  %3 = load ptr, ptr %2, align 8
  %4 = getelementptr inbounds nuw i8, ptr %0, i64 16
  %5 = load i64, ptr %4, align 8
  %6 = load ptr, ptr %3, align 8
  %7 = getelementptr %"struct.cmStateDetail::SnapshotDataType", ptr %6, i64 %5
  %8 = getelementptr i8, ptr %7, i64 -176
  %9 = load ptr, ptr %8, align 8
  %10 = getelementptr i8, ptr %7, i64 -168
  %11 = load i64, ptr %10, align 8
  %12 = load ptr, ptr %9, align 8
  %13 = getelementptr %"struct.cmStateDetail::PolicyStackEntry", ptr %12, i64 %11
  %14 = getelementptr i8, ptr %13, i64 -72
  %15 = tail call noundef zeroext i1 @_ZNK10cmPolicies9PolicyMap7IsEmptyEv(ptr noundef nonnull align 8 dereferenceable(64) %14)
  %16 = xor i1 %15, true
  ret i1 %16
}